target datalayout = "e-m:e-p270:32:32-p271:32:32-p272:64:64-i64:64-i128:128-f80:128-n8:16:32:64-S128"
target triple = "x86_64-pc-linux-gnu"

%"class.llvm::Error" = type { ptr }
%"class.llvm::ErrorSuccess" = type { %"class.llvm::Error" }
%"class.llvm::codeview::SymbolRecordMapping" = type <{ %"class.llvm::codeview::SymbolVisitorCallbacks", %"class.std::optional", [4 x i8], %"class.llvm::codeview::CodeViewRecordIO", i32, [4 x i8] }>
%"class.llvm::codeview::SymbolVisitorCallbacks" = type { ptr }
%"class.std::optional" = type { %"struct.std::_Optional_base" }
%"struct.std::_Optional_base" = type { %"struct.std::_Optional_payload" }
%"struct.std::_Optional_payload" = type { %"struct.std::_Optional_payload_base.base", i8 }
%"struct.std::_Optional_payload_base.base" = type <{ %"union.std::_Optional_payload_base<llvm::codeview::SymbolKind>::_Storage", i8 }>
%"union.std::_Optional_payload_base<llvm::codeview::SymbolKind>::_Storage" = type { i16 }
%"class.llvm::codeview::CodeViewRecordIO" = type { %"class.llvm::SmallVector", ptr, ptr, ptr, i64 }
%"class.llvm::SmallVector" = type { %"class.llvm::SmallVectorImpl", %"struct.llvm::SmallVectorStorage" }
%"class.llvm::SmallVectorImpl" = type { %"class.llvm::SmallVectorTemplateBase" }
%"class.llvm::SmallVectorTemplateBase" = type { %"class.llvm::SmallVectorTemplateCommon" }
%"class.llvm::SmallVectorTemplateCommon" = type { %"class.llvm::SmallVectorBase" }
%"class.llvm::SmallVectorBase" = type { ptr, i32, i32 }
%"struct.llvm::SmallVectorStorage" = type { [24 x i8] }
%"class.llvm::Twine" = type <{ %"union.llvm::Twine::Child", %"union.llvm::Twine::Child", i8, i8, [6 x i8] }>
%"union.llvm::Twine::Child" = type { %struct.anon }
%struct.anon = type { ptr, i64 }
%"class.llvm::codeview::SymbolRecord" = type { i16 }
%"class.llvm::StringRef" = type { ptr, i64 }
%"class.llvm::codeview::UsingNamespaceSym" = type <{ %"class.llvm::codeview::SymbolRecord", [6 x i8], %"class.llvm::StringRef", i32, [4 x i8] }>

@.str = private unnamed_addr constant [1 x i8] zeroinitializer, align 1

; Function Attrs: mustprogress nounwind uwtable
define linkonce_odr hidden void @_ZN4llvm5Error6setPtrEPNS_13ErrorInfoBaseE(ptr noundef nonnull align 8 dereferenceable(8) %0, ptr noundef %1) #0 comdat align 2 {
  %3 = alloca ptr, align 8
  %4 = alloca ptr, align 8
  store ptr %0, ptr %3, align 8
  store ptr %1, ptr %4, align 8
  %5 = load ptr, ptr %3, align 8
  %6 = load ptr, ptr %4, align 8
  %7 = getelementptr inbounds nuw %"class.llvm::Error", ptr %5, i32 0, i32 0
  store ptr %6, ptr %7, align 8
  ret void
}

; Function Attrs: mustprogress nounwind uwtable
define linkonce_odr hidden void @_ZN4llvm5ErrorC2Ev(ptr noundef nonnull align 8 dereferenceable(8) %0) unnamed_addr #0 comdat align 2 {
  %2 = alloca ptr, align 8
  store ptr %0, ptr %2, align 8
  %3 = load ptr, ptr %2, align 8
  %4 = getelementptr inbounds nuw %"class.llvm::Error", ptr %3, i32 0, i32 0
  store ptr null, ptr %4, align 8
  call void @_ZN4llvm5Error6setPtrEPNS_13ErrorInfoBaseE(ptr noundef nonnull align 8 dereferenceable(8) %3, ptr noundef null)
  call void @_ZN4llvm5Error10setCheckedEb(ptr noundef nonnull align 8 dereferenceable(8) %3, i1 noundef zeroext false)
  ret void
}

; Function Attrs: mustprogress nounwind uwtable
define linkonce_odr hidden noundef nonnull align 8 dereferenceable(8) ptr @_ZN4llvm5ErroraSEOS0_(ptr noundef nonnull align 8 dereferenceable(8) %0, ptr noundef nonnull align 8 dereferenceable(8) %1) #0 comdat align 2 {
  %3 = alloca ptr, align 8
  %4 = alloca ptr, align 8
  store ptr %0, ptr %3, align 8
  store ptr %1, ptr %4, align 8
  %5 = load ptr, ptr %3, align 8
  call void @_ZN4llvm5Error15assertIsCheckedEv(ptr noundef nonnull align 8 dereferenceable(8) %5)
  %6 = load ptr, ptr %4, align 8
  %7 = call noundef ptr @_ZNK4llvm5Error6getPtrEv(ptr noundef nonnull align 8 dereferenceable(8) %6)
  call void @_ZN4llvm5Error6setPtrEPNS_13ErrorInfoBaseE(ptr noundef nonnull align 8 dereferenceable(8) %5, ptr noundef %7)
  call void @_ZN4llvm5Error10setCheckedEb(ptr noundef nonnull align 8 dereferenceable(8) %5, i1 noundef zeroext false)
  %8 = load ptr, ptr %4, align 8
  call void @_ZN4llvm5Error6setPtrEPNS_13ErrorInfoBaseE(ptr noundef nonnull align 8 dereferenceable(8) %8, ptr noundef null)
  %9 = load ptr, ptr %4, align 8
  call void @_ZN4llvm5Error10setCheckedEb(ptr noundef nonnull align 8 dereferenceable(8) %9, i1 noundef zeroext true)
  ret ptr %5
}

; Function Attrs: mustprogress nounwind uwtable
define linkonce_odr hidden void @_ZN4llvm12ErrorSuccessC2Ev(ptr noundef nonnull align 8 dereferenceable(8) %0) unnamed_addr #0 comdat align 2 {
  %2 = alloca ptr, align 8
  store ptr %0, ptr %2, align 8
  %3 = load ptr, ptr %2, align 8
  call void @_ZN4llvm5ErrorC2Ev(ptr noundef nonnull align 8 dereferenceable(8) %3)
  ret void
}

; Function Attrs: mustprogress nounwind uwtable
define linkonce_odr hidden void @_ZN4llvm5Error15assertIsCheckedEv(ptr noundef nonnull align 8 dereferenceable(8) %0) #0 comdat align 2 {
  %2 = alloca ptr, align 8
  store ptr %0, ptr %2, align 8
  ret void
}

; Function Attrs: mustprogress nounwind uwtable
define linkonce_odr hidden void @_ZN4llvm5Error10setCheckedEb(ptr noundef nonnull align 8 dereferenceable(8) %0, i1 noundef zeroext %1) #0 comdat align 2 {
  %3 = alloca ptr, align 8
  %4 = alloca i8, align 1
  store ptr %0, ptr %3, align 8
  %5 = zext i1 %1 to i8
  store i8 %5, ptr %4, align 1
  ret void
}

; Function Attrs: mustprogress nounwind uwtable
define linkonce_odr hidden noundef ptr @_ZNK4llvm5Error6getPtrEv(ptr noundef nonnull align 8 dereferenceable(8) %0) #0 comdat align 2 {
  %2 = alloca ptr, align 8
  store ptr %0, ptr %2, align 8
  %3 = load ptr, ptr %2, align 8
  %4 = getelementptr inbounds nuw %"class.llvm::Error", ptr %3, i32 0, i32 0
  %5 = load ptr, ptr %4, align 8
  ret ptr %5
}

; Function Attrs: mustprogress nounwind uwtable
define linkonce_odr hidden void @_ZN4llvm12ErrorSuccessD2Ev(ptr noundef nonnull align 8 dereferenceable(8) %0) unnamed_addr #0 comdat align 2 {
  %2 = alloca ptr, align 8
  store ptr %0, ptr %2, align 8
  %3 = load ptr, ptr %2, align 8
  call void @_ZN4llvm5ErrorD2Ev(ptr noundef nonnull align 8 dereferenceable(8) %3) #10
  ret void
}

; Function Attrs: mustprogress nounwind uwtable
define linkonce_odr hidden void @_ZN4llvm5ErrorC2EOS0_(ptr noundef nonnull align 8 dereferenceable(8) %0, ptr noundef nonnull align 8 dereferenceable(8) %1) unnamed_addr #0 comdat align 2 {
  %3 = alloca ptr, align 8
  %4 = alloca ptr, align 8
  store ptr %0, ptr %3, align 8
  store ptr %1, ptr %4, align 8
  %5 = load ptr, ptr %3, align 8
  %6 = getelementptr inbounds nuw %"class.llvm::Error", ptr %5, i32 0, i32 0
  store ptr null, ptr %6, align 8
  call void @_ZN4llvm5Error10setCheckedEb(ptr noundef nonnull align 8 dereferenceable(8) %5, i1 noundef zeroext true)
  %7 = load ptr, ptr %4, align 8
  %8 = call noundef nonnull align 8 dereferenceable(8) ptr @_ZN4llvm5ErroraSEOS0_(ptr noundef nonnull align 8 dereferenceable(8) %5, ptr noundef nonnull align 8 dereferenceable(8) %7)
  ret void
}

; Function Attrs: mustprogress nounwind uwtable
define linkonce_odr hidden void @_ZN4llvm5Error7successEv(ptr dead_on_unwind noalias writable sret(%"class.llvm::ErrorSuccess") align 8 %0) #0 comdat align 2 {
  %2 = alloca ptr, align 8
  store ptr %0, ptr %2, align 8
  call void @llvm.memset.p0.i64(ptr align 8 %0, i8 0, i64 8, i1 false)
  call void @_ZN4llvm12ErrorSuccessC2Ev(ptr noundef nonnull align 8 dereferenceable(8) %0)
  ret void
}

; Function Attrs: mustprogress nounwind uwtable
define linkonce_odr hidden void @_ZN4llvm5ErrorD2Ev(ptr noundef nonnull align 8 dereferenceable(8) %0) unnamed_addr #0 comdat align 2 {
  %2 = alloca ptr, align 8
  store ptr %0, ptr %2, align 8
  %3 = load ptr, ptr %2, align 8
  call void @_ZN4llvm5Error15assertIsCheckedEv(ptr noundef nonnull align 8 dereferenceable(8) %3)
  %4 = call noundef ptr @_ZNK4llvm5Error6getPtrEv(ptr noundef nonnull align 8 dereferenceable(8) %3)
  %5 = icmp eq ptr %4, null
  br i1 %5, label %10, label %6

6:                                                ; preds = %1
  %7 = load ptr, ptr %4, align 8
  %8 = getelementptr inbounds ptr, ptr %7, i64 1
  %9 = load ptr, ptr %8, align 8
  call void %9(ptr noundef nonnull align 8 dereferenceable(8) %4) #10
  br label %10

10:                                               ; preds = %6, %1
  ret void
}

; Function Attrs: mustprogress nounwind uwtable
define linkonce_odr hidden noundef zeroext i1 @_ZN4llvm5ErrorcvbEv(ptr noundef nonnull align 8 dereferenceable(8) %0) #0 comdat align 2 {
  %2 = alloca ptr, align 8
  store ptr %0, ptr %2, align 8
  %3 = load ptr, ptr %2, align 8
  %4 = call noundef ptr @_ZNK4llvm5Error6getPtrEv(ptr noundef nonnull align 8 dereferenceable(8) %3)
  %5 = icmp eq ptr %4, null
  call void @_ZN4llvm5Error10setCheckedEb(ptr noundef nonnull align 8 dereferenceable(8) %3, i1 noundef zeroext %5)
  %6 = call noundef ptr @_ZNK4llvm5Error6getPtrEv(ptr noundef nonnull align 8 dereferenceable(8) %3)
  %7 = icmp ne ptr %6, null
  ret i1 %7
}

; Function Attrs: mustprogress nounwind uwtable
define linkonce_odr hidden void @_ZN4llvm5TwineC2EPKc(ptr noundef nonnull align 8 dereferenceable(34) %0, ptr noundef %1) unnamed_addr #0 comdat align 2 {
  %3 = alloca ptr, align 8
  %4 = alloca ptr, align 8
  store ptr %0, ptr %3, align 8
  store ptr %1, ptr %4, align 8
  %5 = load ptr, ptr %3, align 8
  %6 = getelementptr inbounds nuw %"class.llvm::Twine", ptr %5, i32 0, i32 2
  store i8 1, ptr %6, align 8
  %7 = getelementptr inbounds nuw %"class.llvm::Twine", ptr %5, i32 0, i32 3
  store i8 1, ptr %7, align 1
  %8 = load ptr, ptr %4, align 8
  %9 = getelementptr inbounds i8, ptr %8, i64 0
  %10 = load i8, ptr %9, align 1
  %11 = sext i8 %10 to i32
  %12 = icmp ne i32 %11, 0
  br i1 %12, label %13, label %17

13:                                               ; preds = %2
  %14 = load ptr, ptr %4, align 8
  %15 = getelementptr inbounds nuw %"class.llvm::Twine", ptr %5, i32 0, i32 0
  store ptr %14, ptr %15, align 8
  %16 = getelementptr inbounds nuw %"class.llvm::Twine", ptr %5, i32 0, i32 2
  store i8 3, ptr %16, align 8
  br label %19

17:                                               ; preds = %2
  %18 = getelementptr inbounds nuw %"class.llvm::Twine", ptr %5, i32 0, i32 2
  store i8 1, ptr %18, align 8
  br label %19

19:                                               ; preds = %17, %13
  ret void
}

; Function Attrs: mustprogress nounwind uwtable
define dso_local void @_ZN4llvm8codeview19SymbolRecordMapping16visitKnownRecordERNS0_8CVRecordINS0_10SymbolKindEEERNS0_17UsingNamespaceSymE(ptr dead_on_unwind noalias writable sret(%"class.llvm::Error") align 8 %0, ptr noundef nonnull align 8 dereferenceable(92) %1, ptr noundef nonnull align 1 %2, ptr noundef nonnull align 8 dereferenceable(28) %3) unnamed_addr #0 align 2 {
  %5 = alloca ptr, align 8
  %6 = alloca ptr, align 8
  %7 = alloca ptr, align 8
  %8 = alloca ptr, align 8
  %9 = alloca i1, align 1
  %10 = alloca %"class.llvm::Twine", align 8
  %11 = alloca i32, align 4
  %12 = alloca %"class.llvm::ErrorSuccess", align 8
  store ptr %0, ptr %5, align 8
  store ptr %1, ptr %6, align 8
  store ptr %2, ptr %7, align 8
  store ptr %3, ptr %8, align 8
  %13 = load ptr, ptr %6, align 8
  store i1 false, ptr %9, align 1
  %14 = getelementptr inbounds nuw %"class.llvm::codeview::SymbolRecordMapping", ptr %13, i32 0, i32 3
  %15 = load ptr, ptr %8, align 8
  %16 = getelementptr inbounds nuw %"class.llvm::codeview::UsingNamespaceSym", ptr %15, i32 0, i32 2
  call void @_ZN4llvm5TwineC2EPKc(ptr noundef nonnull align 8 dereferenceable(34) %10, ptr noundef @.str)
  call void @_ZN4llvm8codeview16CodeViewRecordIO10mapStringZERNS_9StringRefERKNS_5TwineE(ptr dead_on_unwind writable sret(%"class.llvm::Error") align 8 %0, ptr noundef nonnull align 8 dereferenceable(72) %14, ptr noundef nonnull align 8 dereferenceable(16) %16, ptr noundef nonnull align 8 dereferenceable(34) %10)
  %17 = call noundef zeroext i1 @_ZN4llvm5ErrorcvbEv(ptr noundef nonnull align 8 dereferenceable(8) %0)
  br i1 %17, label %18, label %19

18:                                               ; preds = %4
  store i1 true, ptr %9, align 1
  store i32 1, ptr %11, align 4
  br label %20

19:                                               ; preds = %4
  store i32 0, ptr %11, align 4
  br label %20

20:                                               ; preds = %19, %18
  %21 = load i1, ptr %9, align 1
  br i1 %21, label %23, label %22

22:                                               ; preds = %20
  call void @_ZN4llvm5ErrorD2Ev(ptr noundef nonnull align 8 dereferenceable(8) %0) #10
  br label %23

23:                                               ; preds = %22, %20
  %24 = load i32, ptr %11, align 4
  switch i32 %24, label %27 [
    i32 0, label %25
    i32 1, label %26
  ]

25:                                               ; preds = %23
  call void @_ZN4llvm5Error7successEv(ptr dead_on_unwind writable sret(%"class.llvm::ErrorSuccess") align 8 %12)
  call void @_ZN4llvm5ErrorC2EOS0_(ptr noundef nonnull align 8 dereferenceable(8) %0, ptr noundef nonnull align 8 dereferenceable(8) %12)
  call void @_ZN4llvm12ErrorSuccessD2Ev(ptr noundef nonnull align 8 dereferenceable(8) %12) #10
  br label %26

26:                                               ; preds = %25, %23
  ret void

27:                                               ; preds = %23
  unreachable
}